; Function Attrs: mustprogress uwtable
define dso_local void @_ZN7testing4TestC2Ev(ptr noundef nonnull writeonly align 8 captures(none) dereferenceable(16) initializes((0, 8)) %0) unnamed_addr #3 align 2 personality ptr @__gxx_personality_v0 {
  store ptr getelementptr inbounds nuw inrange(-16, 48) (i8, ptr @_ZTVN7testing4TestE, i64 16), ptr %0, align 8, !tbaa !23
  %2 = tail call noalias noundef nonnull dereferenceable(248) ptr @_Znwm(i64 noundef 248) #61
  invoke void @_ZN7testing8internal14GTestFlagSaverC2Ev(ptr noundef nonnull align 8 dereferenceable(241) %2)
          to label %3 unwind label %5

3:                                                ; preds = %1
  %4 = getelementptr inbounds nuw i8, ptr %0, i64 8
  store ptr %2, ptr %4, align 8, !tbaa !623
  ret void

5:                                                ; preds = %1
  %6 = landingpad { ptr, i32 }
          cleanup
  tail call void @_ZdlPvm(ptr noundef nonnull %2, i64 noundef 248) #59
  resume { ptr, i32 } %6
}